; Function Attrs: mustprogress nounwind uwtable
define void @_ZN4pkpy3StrC2EPKci(ptr noundef nonnull align 8 dereferenceable(32) %0, ptr nocapture noundef readonly %1, i32 noundef %2) unnamed_addr #4 align 2 {
  store i32 %2, ptr %0, align 8
  %4 = getelementptr inbounds i8, ptr %0, i64 4
  store i8 1, ptr %4, align 4
  %5 = icmp slt i32 %2, 16
  br i1 %5, label %6, label %8

6:                                                ; preds = %3
  %7 = getelementptr inbounds i8, ptr %0, i64 16
  br label %12

8:                                                ; preds = %3
  %9 = add nuw nsw i32 %2, 1
  %10 = zext nneg i32 %9 to i64
  %11 = tail call noundef ptr @_ZN4pkpy12pool64_allocEm(i64 noundef %10) #23
  %.pre = load i32, ptr %0, align 8
  br label %12

12:                                               ; preds = %8, %6
  %13 = phi i32 [ %2, %6 ], [ %.pre, %8 ]
  %.sink = phi ptr [ %7, %6 ], [ %11, %8 ]
  %14 = getelementptr inbounds i8, ptr %0, i64 8
  store ptr %.sink, ptr %14, align 8
  %15 = icmp sgt i32 %13, 0
  br i1 %15, label %.lr.ph, label %.._crit_edge_crit_edge

.._crit_edge_crit_edge:                           ; preds = %12
  %.pre14 = sext i32 %13 to i64
  br label %._crit_edge

.lr.ph:                                           ; preds = %12, %21
  %indvars.iv = phi i64 [ %indvars.iv.next, %21 ], [ 0, %12 ]
  %16 = getelementptr inbounds i8, ptr %1, i64 %indvars.iv
  %17 = load i8, ptr %16, align 1
  %18 = load ptr, ptr %14, align 8
  %19 = getelementptr inbounds i8, ptr %18, i64 %indvars.iv
  store i8 %17, ptr %19, align 1
  %isascii = icmp sgt i8 %17, -1
  br i1 %isascii, label %21, label %20

20:                                               ; preds = %.lr.ph
  store i8 0, ptr %4, align 4
  br label %21

21:                                               ; preds = %.lr.ph, %20
  %indvars.iv.next = add nuw nsw i64 %indvars.iv, 1
  %22 = load i32, ptr %0, align 8
  %23 = sext i32 %22 to i64
  %24 = icmp slt i64 %indvars.iv.next, %23
  br i1 %24, label %.lr.ph, label %._crit_edge.loopexit, !llvm.loop !10

._crit_edge.loopexit:                             ; preds = %21
  %.pre13 = load ptr, ptr %14, align 8
  br label %._crit_edge

._crit_edge:                                      ; preds = %.._crit_edge_crit_edge, %._crit_edge.loopexit
  %.pre-phi = phi i64 [ %.pre14, %.._crit_edge_crit_edge ], [ %23, %._crit_edge.loopexit ]
  %25 = phi ptr [ %.sink, %.._crit_edge_crit_edge ], [ %.pre13, %._crit_edge.loopexit ]
  %26 = getelementptr inbounds i8, ptr %25, i64 %.pre-phi
  store i8 0, ptr %26, align 1
  ret void
}